; Function Attrs: mustprogress nofree norecurse nosync nounwind willreturn memory(read, argmem: readwrite, inaccessiblemem: none) uwtable
define void @_ZN5arrow8internal29OptionalBinaryBitBlockCounterC2ERKSt10shared_ptrINS_6BufferEElS6_ll(ptr noundef nonnull writeonly align 8 captures(none) dereferenceable(88) initializes((0, 4), (8, 88)) %0, ptr noundef nonnull readonly align 8 captures(none) dereferenceable(16) %1, i64 noundef %2, ptr noundef nonnull readonly align 8 captures(none) dereferenceable(16) %3, i64 noundef %4, i64 noundef %5) unnamed_addr #5 align 2 {
  %7 = load ptr, ptr %1, align 8, !tbaa !19
  %.not = icmp eq ptr %7, null
  br i1 %.not, label %15, label %8

8:                                                ; preds = %6
  %9 = getelementptr inbounds nuw i8, ptr %7, i64 9
  %10 = load i8, ptr %9, align 1, !tbaa !24, !range !31, !noundef !32
  %11 = trunc nuw i8 %10 to i1
  %12 = getelementptr inbounds nuw i8, ptr %7, i64 16
  %13 = load ptr, ptr %12, align 8
  %14 = select i1 %11, ptr %13, ptr null, !prof !33
  br label %15

15:                                               ; preds = %6, %8
  %16 = phi ptr [ %14, %8 ], [ null, %6 ]
  %17 = load ptr, ptr %3, align 8, !tbaa !19
  %.not7 = icmp eq ptr %17, null
  br i1 %.not7, label %25, label %18

18:                                               ; preds = %15
  %19 = getelementptr inbounds nuw i8, ptr %17, i64 9
  %20 = load i8, ptr %19, align 1, !tbaa !24, !range !31, !noundef !32
  %21 = trunc nuw i8 %20 to i1
  %22 = getelementptr inbounds nuw i8, ptr %17, i64 16
  %23 = load ptr, ptr %22, align 8
  %24 = select i1 %21, ptr %23, ptr null, !prof !33
  br label %25

25:                                               ; preds = %15, %18
  %26 = phi ptr [ %24, %18 ], [ null, %15 ]
  %27 = icmp ne ptr %16, null
  %28 = icmp ne ptr %26, null
  %switch.selectcmp.i.i = xor i1 %27, %28
  %switch.select.i.i = zext i1 %switch.selectcmp.i.i to i32
  %29 = or i1 %27, %28
  %switch.select4.i.i = select i1 %29, i32 %switch.select.i.i, i32 2
  store i32 %switch.select4.i.i, ptr %0, align 8, !tbaa !34
  %30 = getelementptr inbounds nuw i8, ptr %0, i64 8
  store i64 0, ptr %30, align 8, !tbaa !38
  %31 = getelementptr inbounds nuw i8, ptr %0, i64 16
  store i64 %5, ptr %31, align 8, !tbaa !39
  %32 = getelementptr inbounds nuw i8, ptr %0, i64 24
  %33 = select i1 %27, ptr %16, ptr %26
  %.not.i.i = icmp eq ptr %33, null
  %_ZN5arrow4util8internalL14kNonNullFillerE..i.i = select i1 %.not.i.i, ptr @_ZN5arrow4util8internalL14kNonNullFillerE, ptr %33, !prof !18
  %34 = select i1 %27, i64 %2, i64 %4
  %35 = sdiv i64 %34, 8
  %36 = getelementptr inbounds i8, ptr %_ZN5arrow4util8internalL14kNonNullFillerE..i.i, i64 %35
  store ptr %36, ptr %32, align 8, !tbaa !7
  %37 = getelementptr inbounds nuw i8, ptr %0, i64 32
  store i64 %5, ptr %37, align 8, !tbaa !12
  %38 = getelementptr inbounds nuw i8, ptr %0, i64 40
  %39 = srem i64 %34, 8
  store i64 %39, ptr %38, align 8, !tbaa !11
  %40 = getelementptr inbounds nuw i8, ptr %0, i64 48
  %.not.i15.i = icmp eq ptr %16, null
  %_ZN5arrow4util8internalL14kNonNullFillerE..i16.i = select i1 %.not.i15.i, ptr @_ZN5arrow4util8internalL14kNonNullFillerE, ptr %16, !prof !18
  %.not.i17.i = icmp eq ptr %26, null
  %_ZN5arrow4util8internalL14kNonNullFillerE..i18.i = select i1 %.not.i17.i, ptr @_ZN5arrow4util8internalL14kNonNullFillerE, ptr %26, !prof !18
  %41 = sdiv i64 %2, 8
  %42 = getelementptr inbounds i8, ptr %_ZN5arrow4util8internalL14kNonNullFillerE..i16.i, i64 %41
  store ptr %42, ptr %40, align 8, !tbaa !40
  %43 = getelementptr inbounds nuw i8, ptr %0, i64 56
  %44 = srem i64 %2, 8
  store i64 %44, ptr %43, align 8, !tbaa !41
  %45 = getelementptr inbounds nuw i8, ptr %0, i64 64
  %46 = sdiv i64 %4, 8
  %47 = getelementptr inbounds i8, ptr %_ZN5arrow4util8internalL14kNonNullFillerE..i18.i, i64 %46
  store ptr %47, ptr %45, align 8, !tbaa !42
  %48 = getelementptr inbounds nuw i8, ptr %0, i64 72
  %49 = srem i64 %4, 8
  store i64 %49, ptr %48, align 8, !tbaa !43
  %50 = getelementptr inbounds nuw i8, ptr %0, i64 80
  store i64 %5, ptr %50, align 8, !tbaa !44
  ret void
}